target datalayout = "e-m:e-p270:32:32-p271:32:32-p272:64:64-i64:64-i128:128-f80:128-n8:16:32:64-S128"
target triple = "x86_64-pc-linux-gnu"

%"struct.llvm::EVT" = type { %"class.llvm::MVT", ptr }
%"class.llvm::MVT" = type { i16 }

; Function Attrs: mustprogress nounwind uwtable
define linkonce_odr hidden noundef zeroext i1 @_ZNK4llvm3EVTneES0_(ptr noundef nonnull align 8 dereferenceable(16) %0, i16 %1, ptr %2) #1 comdat align 2 {
  %4 = alloca i1, align 1
  %5 = alloca %"struct.llvm::EVT", align 8
  %6 = alloca ptr, align 8
  %7 = getelementptr inbounds nuw { i16, ptr }, ptr %5, i32 0, i32 0
  store i16 %1, ptr %7, align 8
  %8 = getelementptr inbounds nuw { i16, ptr }, ptr %5, i32 0, i32 1
  store ptr %2, ptr %8, align 8
  store ptr %0, ptr %6, align 8
  %9 = load ptr, ptr %6, align 8
  %10 = getelementptr inbounds nuw %"struct.llvm::EVT", ptr %9, i32 0, i32 0
  %11 = getelementptr inbounds nuw %"class.llvm::MVT", ptr %10, i32 0, i32 0
  %12 = load i16, ptr %11, align 8
  %13 = zext i16 %12 to i32
  %14 = getelementptr inbounds nuw %"struct.llvm::EVT", ptr %5, i32 0, i32 0
  %15 = getelementptr inbounds nuw %"class.llvm::MVT", ptr %14, i32 0, i32 0
  %16 = load i16, ptr %15, align 8
  %17 = zext i16 %16 to i32
  %18 = icmp ne i32 %13, %17
  br i1 %18, label %19, label %20

19:                                               ; preds = %3
  store i1 true, ptr %4, align 1
  br label %33

20:                                               ; preds = %3
  %21 = getelementptr inbounds nuw %"struct.llvm::EVT", ptr %9, i32 0, i32 0
  %22 = getelementptr inbounds nuw %"class.llvm::MVT", ptr %21, i32 0, i32 0
  %23 = load i16, ptr %22, align 8
  %24 = zext i16 %23 to i32
  %25 = icmp eq i32 %24, 0
  br i1 %25, label %26, label %32

26:                                               ; preds = %20
  %27 = getelementptr inbounds nuw %"struct.llvm::EVT", ptr %9, i32 0, i32 1
  %28 = load ptr, ptr %27, align 8
  %29 = getelementptr inbounds nuw %"struct.llvm::EVT", ptr %5, i32 0, i32 1
  %30 = load ptr, ptr %29, align 8
  %31 = icmp ne ptr %28, %30
  store i1 %31, ptr %4, align 1
  br label %33

32:                                               ; preds = %20
  store i1 false, ptr %4, align 1
  br label %33

33:                                               ; preds = %32, %26, %19
  %34 = load i1, ptr %4, align 1
  ret i1 %34
}

; Function Attrs: mustprogress nounwind uwtable
define linkonce_odr hidden void @_ZN4llvm3MVTC2ENS0_15SimpleValueTypeE(ptr noundef nonnull align 2 dereferenceable(2) %0, i16 noundef zeroext %1) unnamed_addr #1 comdat align 2 {
  %3 = alloca ptr, align 8
  %4 = alloca i16, align 2
  store ptr %0, ptr %3, align 8
  store i16 %1, ptr %4, align 2
  %5 = load ptr, ptr %3, align 8
  %6 = getelementptr inbounds nuw %"class.llvm::MVT", ptr %5, i32 0, i32 0
  %7 = load i16, ptr %4, align 2
  store i16 %7, ptr %6, align 2
  ret void
}

; Function Attrs: mustprogress nounwind uwtable
define linkonce_odr hidden noundef zeroext i1 @_ZNK4llvm3EVTeqES0_(ptr noundef nonnull align 8 dereferenceable(16) %0, i16 %1, ptr %2) #1 comdat align 2 {
  %4 = alloca %"struct.llvm::EVT", align 8
  %5 = alloca ptr, align 8
  %6 = alloca %"struct.llvm::EVT", align 8
  %7 = getelementptr inbounds nuw { i16, ptr }, ptr %4, i32 0, i32 0
  store i16 %1, ptr %7, align 8
  %8 = getelementptr inbounds nuw { i16, ptr }, ptr %4, i32 0, i32 1
  store ptr %2, ptr %8, align 8
  store ptr %0, ptr %5, align 8
  %9 = load ptr, ptr %5, align 8
  call void @llvm.memcpy.p0.p0.i64(ptr align 8 %6, ptr align 8 %4, i64 16, i1 false)
  %10 = getelementptr inbounds nuw { i16, ptr }, ptr %6, i32 0, i32 0
  %11 = load i16, ptr %10, align 8
  %12 = getelementptr inbounds nuw { i16, ptr }, ptr %6, i32 0, i32 1
  %13 = load ptr, ptr %12, align 8
  %14 = call noundef zeroext i1 @_ZNK4llvm3EVTneES0_(ptr noundef nonnull align 8 dereferenceable(16) %9, i16 %11, ptr %13)
  %15 = xor i1 %14, true
  ret i1 %15
}

; Function Attrs: mustprogress nounwind uwtable
define linkonce_odr hidden void @_ZN4llvm3EVTC2ENS_3MVT15SimpleValueTypeE(ptr noundef nonnull align 8 dereferenceable(16) %0, i16 noundef zeroext %1) unnamed_addr #1 comdat align 2 {
  %3 = alloca ptr, align 8
  %4 = alloca i16, align 2
  store ptr %0, ptr %3, align 8
  store i16 %1, ptr %4, align 2
  %5 = load ptr, ptr %3, align 8
  %6 = getelementptr inbounds nuw %"struct.llvm::EVT", ptr %5, i32 0, i32 0
  %7 = load i16, ptr %4, align 2
  call void @_ZN4llvm3MVTC2ENS0_15SimpleValueTypeE(ptr noundef nonnull align 2 dereferenceable(2) %6, i16 noundef zeroext %7)
  %8 = getelementptr inbounds nuw %"struct.llvm::EVT", ptr %5, i32 0, i32 1
  store ptr null, ptr %8, align 8
  ret void
}

; Function Attrs: mustprogress nounwind uwtable
define dso_local noundef i32 @_ZN4llvm5RTLIB11getFPTOSINTENS_3EVTES1_(i16 %0, ptr %1, i16 %2, ptr %3) #1 {
  %5 = alloca i32, align 4
  %6 = alloca %"struct.llvm::EVT", align 8
  %7 = alloca %"struct.llvm::EVT", align 8
  %8 = alloca %"struct.llvm::EVT", align 8
  %9 = alloca %"struct.llvm::EVT", align 8
  %10 = alloca %"struct.llvm::EVT", align 8
  %11 = alloca %"struct.llvm::EVT", align 8
  %12 = alloca %"struct.llvm::EVT", align 8
  %13 = alloca %"struct.llvm::EVT", align 8
  %14 = alloca %"struct.llvm::EVT", align 8
  %15 = alloca %"struct.llvm::EVT", align 8
  %16 = alloca %"struct.llvm::EVT", align 8
  %17 = alloca %"struct.llvm::EVT", align 8
  %18 = alloca %"struct.llvm::EVT", align 8
  %19 = alloca %"struct.llvm::EVT", align 8
  %20 = alloca %"struct.llvm::EVT", align 8
  %21 = alloca %"struct.llvm::EVT", align 8
  %22 = alloca %"struct.llvm::EVT", align 8
  %23 = alloca %"struct.llvm::EVT", align 8
  %24 = alloca %"struct.llvm::EVT", align 8
  %25 = alloca %"struct.llvm::EVT", align 8
  %26 = alloca %"struct.llvm::EVT", align 8
  %27 = alloca %"struct.llvm::EVT", align 8
  %28 = alloca %"struct.llvm::EVT", align 8
  %29 = alloca %"struct.llvm::EVT", align 8
  %30 = alloca %"struct.llvm::EVT", align 8
  %31 = alloca %"struct.llvm::EVT", align 8
  %32 = getelementptr inbounds nuw { i16, ptr }, ptr %6, i32 0, i32 0
  store i16 %0, ptr %32, align 8
  %33 = getelementptr inbounds nuw { i16, ptr }, ptr %6, i32 0, i32 1
  store ptr %1, ptr %33, align 8
  %34 = getelementptr inbounds nuw { i16, ptr }, ptr %7, i32 0, i32 0
  store i16 %2, ptr %34, align 8
  %35 = getelementptr inbounds nuw { i16, ptr }, ptr %7, i32 0, i32 1
  store ptr %3, ptr %35, align 8
  call void @_ZN4llvm3EVTC2ENS_3MVT15SimpleValueTypeE(ptr noundef nonnull align 8 dereferenceable(16) %8, i16 noundef zeroext 11)
  %36 = getelementptr inbounds nuw { i16, ptr }, ptr %8, i32 0, i32 0
  %37 = load i16, ptr %36, align 8
  %38 = getelementptr inbounds nuw { i16, ptr }, ptr %8, i32 0, i32 1
  %39 = load ptr, ptr %38, align 8
  %40 = call noundef zeroext i1 @_ZNK4llvm3EVTeqES0_(ptr noundef nonnull align 8 dereferenceable(16) %6, i16 %37, ptr %39)
  br i1 %40, label %41, label %63

41:                                               ; preds = %4
  call void @_ZN4llvm3EVTC2ENS_3MVT15SimpleValueTypeE(ptr noundef nonnull align 8 dereferenceable(16) %9, i16 noundef zeroext 7)
  %42 = getelementptr inbounds nuw { i16, ptr }, ptr %9, i32 0, i32 0
  %43 = load i16, ptr %42, align 8
  %44 = getelementptr inbounds nuw { i16, ptr }, ptr %9, i32 0, i32 1
  %45 = load ptr, ptr %44, align 8
  %46 = call noundef zeroext i1 @_ZNK4llvm3EVTeqES0_(ptr noundef nonnull align 8 dereferenceable(16) %7, i16 %43, ptr %45)
  br i1 %46, label %47, label %48

47:                                               ; preds = %41
  store i32 337, ptr %5, align 4
  br label %209

48:                                               ; preds = %41
  call void @_ZN4llvm3EVTC2ENS_3MVT15SimpleValueTypeE(ptr noundef nonnull align 8 dereferenceable(16) %10, i16 noundef zeroext 8)
  %49 = getelementptr inbounds nuw { i16, ptr }, ptr %10, i32 0, i32 0
  %50 = load i16, ptr %49, align 8
  %51 = getelementptr inbounds nuw { i16, ptr }, ptr %10, i32 0, i32 1
  %52 = load ptr, ptr %51, align 8
  %53 = call noundef zeroext i1 @_ZNK4llvm3EVTeqES0_(ptr noundef nonnull align 8 dereferenceable(16) %7, i16 %50, ptr %52)
  br i1 %53, label %54, label %55

54:                                               ; preds = %48
  store i32 338, ptr %5, align 4
  br label %209

55:                                               ; preds = %48
  call void @_ZN4llvm3EVTC2ENS_3MVT15SimpleValueTypeE(ptr noundef nonnull align 8 dereferenceable(16) %11, i16 noundef zeroext 9)
  %56 = getelementptr inbounds nuw { i16, ptr }, ptr %11, i32 0, i32 0
  %57 = load i16, ptr %56, align 8
  %58 = getelementptr inbounds nuw { i16, ptr }, ptr %11, i32 0, i32 1
  %59 = load ptr, ptr %58, align 8
  %60 = call noundef zeroext i1 @_ZNK4llvm3EVTeqES0_(ptr noundef nonnull align 8 dereferenceable(16) %7, i16 %57, ptr %59)
  br i1 %60, label %61, label %62

61:                                               ; preds = %55
  store i32 339, ptr %5, align 4
  br label %209

62:                                               ; preds = %55
  br label %208

63:                                               ; preds = %4
  call void @_ZN4llvm3EVTC2ENS_3MVT15SimpleValueTypeE(ptr noundef nonnull align 8 dereferenceable(16) %12, i16 noundef zeroext 12)
  %64 = getelementptr inbounds nuw { i16, ptr }, ptr %12, i32 0, i32 0
  %65 = load i16, ptr %64, align 8
  %66 = getelementptr inbounds nuw { i16, ptr }, ptr %12, i32 0, i32 1
  %67 = load ptr, ptr %66, align 8
  %68 = call noundef zeroext i1 @_ZNK4llvm3EVTeqES0_(ptr noundef nonnull align 8 dereferenceable(16) %6, i16 %65, ptr %67)
  br i1 %68, label %69, label %91

69:                                               ; preds = %63
  call void @_ZN4llvm3EVTC2ENS_3MVT15SimpleValueTypeE(ptr noundef nonnull align 8 dereferenceable(16) %13, i16 noundef zeroext 7)
  %70 = getelementptr inbounds nuw { i16, ptr }, ptr %13, i32 0, i32 0
  %71 = load i16, ptr %70, align 8
  %72 = getelementptr inbounds nuw { i16, ptr }, ptr %13, i32 0, i32 1
  %73 = load ptr, ptr %72, align 8
  %74 = call noundef zeroext i1 @_ZNK4llvm3EVTeqES0_(ptr noundef nonnull align 8 dereferenceable(16) %7, i16 %71, ptr %73)
  br i1 %74, label %75, label %76

75:                                               ; preds = %69
  store i32 340, ptr %5, align 4
  br label %209

76:                                               ; preds = %69
  call void @_ZN4llvm3EVTC2ENS_3MVT15SimpleValueTypeE(ptr noundef nonnull align 8 dereferenceable(16) %14, i16 noundef zeroext 8)
  %77 = getelementptr inbounds nuw { i16, ptr }, ptr %14, i32 0, i32 0
  %78 = load i16, ptr %77, align 8
  %79 = getelementptr inbounds nuw { i16, ptr }, ptr %14, i32 0, i32 1
  %80 = load ptr, ptr %79, align 8
  %81 = call noundef zeroext i1 @_ZNK4llvm3EVTeqES0_(ptr noundef nonnull align 8 dereferenceable(16) %7, i16 %78, ptr %80)
  br i1 %81, label %82, label %83

82:                                               ; preds = %76
  store i32 341, ptr %5, align 4
  br label %209

83:                                               ; preds = %76
  call void @_ZN4llvm3EVTC2ENS_3MVT15SimpleValueTypeE(ptr noundef nonnull align 8 dereferenceable(16) %15, i16 noundef zeroext 9)
  %84 = getelementptr inbounds nuw { i16, ptr }, ptr %15, i32 0, i32 0
  %85 = load i16, ptr %84, align 8
  %86 = getelementptr inbounds nuw { i16, ptr }, ptr %15, i32 0, i32 1
  %87 = load ptr, ptr %86, align 8
  %88 = call noundef zeroext i1 @_ZNK4llvm3EVTeqES0_(ptr noundef nonnull align 8 dereferenceable(16) %7, i16 %85, ptr %87)
  br i1 %88, label %89, label %90

89:                                               ; preds = %83
  store i32 342, ptr %5, align 4
  br label %209

90:                                               ; preds = %83
  br label %207

91:                                               ; preds = %63
  call void @_ZN4llvm3EVTC2ENS_3MVT15SimpleValueTypeE(ptr noundef nonnull align 8 dereferenceable(16) %16, i16 noundef zeroext 13)
  %92 = getelementptr inbounds nuw { i16, ptr }, ptr %16, i32 0, i32 0
  %93 = load i16, ptr %92, align 8
  %94 = getelementptr inbounds nuw { i16, ptr }, ptr %16, i32 0, i32 1
  %95 = load ptr, ptr %94, align 8
  %96 = call noundef zeroext i1 @_ZNK4llvm3EVTeqES0_(ptr noundef nonnull align 8 dereferenceable(16) %6, i16 %93, ptr %95)
  br i1 %96, label %97, label %119

97:                                               ; preds = %91
  call void @_ZN4llvm3EVTC2ENS_3MVT15SimpleValueTypeE(ptr noundef nonnull align 8 dereferenceable(16) %17, i16 noundef zeroext 7)
  %98 = getelementptr inbounds nuw { i16, ptr }, ptr %17, i32 0, i32 0
  %99 = load i16, ptr %98, align 8
  %100 = getelementptr inbounds nuw { i16, ptr }, ptr %17, i32 0, i32 1
  %101 = load ptr, ptr %100, align 8
  %102 = call noundef zeroext i1 @_ZNK4llvm3EVTeqES0_(ptr noundef nonnull align 8 dereferenceable(16) %7, i16 %99, ptr %101)
  br i1 %102, label %103, label %104

103:                                              ; preds = %97
  store i32 343, ptr %5, align 4
  br label %209

104:                                              ; preds = %97
  call void @_ZN4llvm3EVTC2ENS_3MVT15SimpleValueTypeE(ptr noundef nonnull align 8 dereferenceable(16) %18, i16 noundef zeroext 8)
  %105 = getelementptr inbounds nuw { i16, ptr }, ptr %18, i32 0, i32 0
  %106 = load i16, ptr %105, align 8
  %107 = getelementptr inbounds nuw { i16, ptr }, ptr %18, i32 0, i32 1
  %108 = load ptr, ptr %107, align 8
  %109 = call noundef zeroext i1 @_ZNK4llvm3EVTeqES0_(ptr noundef nonnull align 8 dereferenceable(16) %7, i16 %106, ptr %108)
  br i1 %109, label %110, label %111

110:                                              ; preds = %104
  store i32 344, ptr %5, align 4
  br label %209

111:                                              ; preds = %104
  call void @_ZN4llvm3EVTC2ENS_3MVT15SimpleValueTypeE(ptr noundef nonnull align 8 dereferenceable(16) %19, i16 noundef zeroext 9)
  %112 = getelementptr inbounds nuw { i16, ptr }, ptr %19, i32 0, i32 0
  %113 = load i16, ptr %112, align 8
  %114 = getelementptr inbounds nuw { i16, ptr }, ptr %19, i32 0, i32 1
  %115 = load ptr, ptr %114, align 8
  %116 = call noundef zeroext i1 @_ZNK4llvm3EVTeqES0_(ptr noundef nonnull align 8 dereferenceable(16) %7, i16 %113, ptr %115)
  br i1 %116, label %117, label %118

117:                                              ; preds = %111
  store i32 345, ptr %5, align 4
  br label %209

118:                                              ; preds = %111
  br label %206

119:                                              ; preds = %91
  call void @_ZN4llvm3EVTC2ENS_3MVT15SimpleValueTypeE(ptr noundef nonnull align 8 dereferenceable(16) %20, i16 noundef zeroext 14)
  %120 = getelementptr inbounds nuw { i16, ptr }, ptr %20, i32 0, i32 0
  %121 = load i16, ptr %120, align 8
  %122 = getelementptr inbounds nuw { i16, ptr }, ptr %20, i32 0, i32 1
  %123 = load ptr, ptr %122, align 8
  %124 = call noundef zeroext i1 @_ZNK4llvm3EVTeqES0_(ptr noundef nonnull align 8 dereferenceable(16) %6, i16 %121, ptr %123)
  br i1 %124, label %125, label %147

125:                                              ; preds = %119
  call void @_ZN4llvm3EVTC2ENS_3MVT15SimpleValueTypeE(ptr noundef nonnull align 8 dereferenceable(16) %21, i16 noundef zeroext 7)
  %126 = getelementptr inbounds nuw { i16, ptr }, ptr %21, i32 0, i32 0
  %127 = load i16, ptr %126, align 8
  %128 = getelementptr inbounds nuw { i16, ptr }, ptr %21, i32 0, i32 1
  %129 = load ptr, ptr %128, align 8
  %130 = call noundef zeroext i1 @_ZNK4llvm3EVTeqES0_(ptr noundef nonnull align 8 dereferenceable(16) %7, i16 %127, ptr %129)
  br i1 %130, label %131, label %132

131:                                              ; preds = %125
  store i32 346, ptr %5, align 4
  br label %209

132:                                              ; preds = %125
  call void @_ZN4llvm3EVTC2ENS_3MVT15SimpleValueTypeE(ptr noundef nonnull align 8 dereferenceable(16) %22, i16 noundef zeroext 8)
  %133 = getelementptr inbounds nuw { i16, ptr }, ptr %22, i32 0, i32 0
  %134 = load i16, ptr %133, align 8
  %135 = getelementptr inbounds nuw { i16, ptr }, ptr %22, i32 0, i32 1
  %136 = load ptr, ptr %135, align 8
  %137 = call noundef zeroext i1 @_ZNK4llvm3EVTeqES0_(ptr noundef nonnull align 8 dereferenceable(16) %7, i16 %134, ptr %136)
  br i1 %137, label %138, label %139

138:                                              ; preds = %132
  store i32 347, ptr %5, align 4
  br label %209

139:                                              ; preds = %132
  call void @_ZN4llvm3EVTC2ENS_3MVT15SimpleValueTypeE(ptr noundef nonnull align 8 dereferenceable(16) %23, i16 noundef zeroext 9)
  %140 = getelementptr inbounds nuw { i16, ptr }, ptr %23, i32 0, i32 0
  %141 = load i16, ptr %140, align 8
  %142 = getelementptr inbounds nuw { i16, ptr }, ptr %23, i32 0, i32 1
  %143 = load ptr, ptr %142, align 8
  %144 = call noundef zeroext i1 @_ZNK4llvm3EVTeqES0_(ptr noundef nonnull align 8 dereferenceable(16) %7, i16 %141, ptr %143)
  br i1 %144, label %145, label %146

145:                                              ; preds = %139
  store i32 348, ptr %5, align 4
  br label %209

146:                                              ; preds = %139
  br label %205

147:                                              ; preds = %119
  call void @_ZN4llvm3EVTC2ENS_3MVT15SimpleValueTypeE(ptr noundef nonnull align 8 dereferenceable(16) %24, i16 noundef zeroext 15)
  %148 = getelementptr inbounds nuw { i16, ptr }, ptr %24, i32 0, i32 0
  %149 = load i16, ptr %148, align 8
  %150 = getelementptr inbounds nuw { i16, ptr }, ptr %24, i32 0, i32 1
  %151 = load ptr, ptr %150, align 8
  %152 = call noundef zeroext i1 @_ZNK4llvm3EVTeqES0_(ptr noundef nonnull align 8 dereferenceable(16) %6, i16 %149, ptr %151)
  br i1 %152, label %153, label %175

153:                                              ; preds = %147
  call void @_ZN4llvm3EVTC2ENS_3MVT15SimpleValueTypeE(ptr noundef nonnull align 8 dereferenceable(16) %25, i16 noundef zeroext 7)
  %154 = getelementptr inbounds nuw { i16, ptr }, ptr %25, i32 0, i32 0
  %155 = load i16, ptr %154, align 8
  %156 = getelementptr inbounds nuw { i16, ptr }, ptr %25, i32 0, i32 1
  %157 = load ptr, ptr %156, align 8
  %158 = call noundef zeroext i1 @_ZNK4llvm3EVTeqES0_(ptr noundef nonnull align 8 dereferenceable(16) %7, i16 %155, ptr %157)
  br i1 %158, label %159, label %160

159:                                              ; preds = %153
  store i32 349, ptr %5, align 4
  br label %209

160:                                              ; preds = %153
  call void @_ZN4llvm3EVTC2ENS_3MVT15SimpleValueTypeE(ptr noundef nonnull align 8 dereferenceable(16) %26, i16 noundef zeroext 8)
  %161 = getelementptr inbounds nuw { i16, ptr }, ptr %26, i32 0, i32 0
  %162 = load i16, ptr %161, align 8
  %163 = getelementptr inbounds nuw { i16, ptr }, ptr %26, i32 0, i32 1
  %164 = load ptr, ptr %163, align 8
  %165 = call noundef zeroext i1 @_ZNK4llvm3EVTeqES0_(ptr noundef nonnull align 8 dereferenceable(16) %7, i16 %162, ptr %164)
  br i1 %165, label %166, label %167

166:                                              ; preds = %160
  store i32 350, ptr %5, align 4
  br label %209

167:                                              ; preds = %160
  call void @_ZN4llvm3EVTC2ENS_3MVT15SimpleValueTypeE(ptr noundef nonnull align 8 dereferenceable(16) %27, i16 noundef zeroext 9)
  %168 = getelementptr inbounds nuw { i16, ptr }, ptr %27, i32 0, i32 0
  %169 = load i16, ptr %168, align 8
  %170 = getelementptr inbounds nuw { i16, ptr }, ptr %27, i32 0, i32 1
  %171 = load ptr, ptr %170, align 8
  %172 = call noundef zeroext i1 @_ZNK4llvm3EVTeqES0_(ptr noundef nonnull align 8 dereferenceable(16) %7, i16 %169, ptr %171)
  br i1 %172, label %173, label %174

173:                                              ; preds = %167
  store i32 351, ptr %5, align 4
  br label %209

174:                                              ; preds = %167
  br label %204

175:                                              ; preds = %147
  call void @_ZN4llvm3EVTC2ENS_3MVT15SimpleValueTypeE(ptr noundef nonnull align 8 dereferenceable(16) %28, i16 noundef zeroext 16)
  %176 = getelementptr inbounds nuw { i16, ptr }, ptr %28, i32 0, i32 0
  %177 = load i16, ptr %176, align 8
  %178 = getelementptr inbounds nuw { i16, ptr }, ptr %28, i32 0, i32 1
  %179 = load ptr, ptr %178, align 8
  %180 = call noundef zeroext i1 @_ZNK4llvm3EVTeqES0_(ptr noundef nonnull align 8 dereferenceable(16) %6, i16 %177, ptr %179)
  br i1 %180, label %181, label %203

181:                                              ; preds = %175
  call void @_ZN4llvm3EVTC2ENS_3MVT15SimpleValueTypeE(ptr noundef nonnull align 8 dereferenceable(16) %29, i16 noundef zeroext 7)
  %182 = getelementptr inbounds nuw { i16, ptr }, ptr %29, i32 0, i32 0
  %183 = load i16, ptr %182, align 8
  %184 = getelementptr inbounds nuw { i16, ptr }, ptr %29, i32 0, i32 1
  %185 = load ptr, ptr %184, align 8
  %186 = call noundef zeroext i1 @_ZNK4llvm3EVTeqES0_(ptr noundef nonnull align 8 dereferenceable(16) %7, i16 %183, ptr %185)
  br i1 %186, label %187, label %188

187:                                              ; preds = %181
  store i32 352, ptr %5, align 4
  br label %209

188:                                              ; preds = %181
  call void @_ZN4llvm3EVTC2ENS_3MVT15SimpleValueTypeE(ptr noundef nonnull align 8 dereferenceable(16) %30, i16 noundef zeroext 8)
  %189 = getelementptr inbounds nuw { i16, ptr }, ptr %30, i32 0, i32 0
  %190 = load i16, ptr %189, align 8
  %191 = getelementptr inbounds nuw { i16, ptr }, ptr %30, i32 0, i32 1
  %192 = load ptr, ptr %191, align 8
  %193 = call noundef zeroext i1 @_ZNK4llvm3EVTeqES0_(ptr noundef nonnull align 8 dereferenceable(16) %7, i16 %190, ptr %192)
  br i1 %193, label %194, label %195

194:                                              ; preds = %188
  store i32 353, ptr %5, align 4
  br label %209

195:                                              ; preds = %188
  call void @_ZN4llvm3EVTC2ENS_3MVT15SimpleValueTypeE(ptr noundef nonnull align 8 dereferenceable(16) %31, i16 noundef zeroext 9)
  %196 = getelementptr inbounds nuw { i16, ptr }, ptr %31, i32 0, i32 0
  %197 = load i16, ptr %196, align 8
  %198 = getelementptr inbounds nuw { i16, ptr }, ptr %31, i32 0, i32 1
  %199 = load ptr, ptr %198, align 8
  %200 = call noundef zeroext i1 @_ZNK4llvm3EVTeqES0_(ptr noundef nonnull align 8 dereferenceable(16) %7, i16 %197, ptr %199)
  br i1 %200, label %201, label %202

201:                                              ; preds = %195
  store i32 354, ptr %5, align 4
  br label %209

202:                                              ; preds = %195
  br label %203

203:                                              ; preds = %202, %175
  br label %204

204:                                              ; preds = %203, %174
  br label %205

205:                                              ; preds = %204, %146
  br label %206

206:                                              ; preds = %205, %118
  br label %207

207:                                              ; preds = %206, %90
  br label %208

208:                                              ; preds = %207, %62
  store i32 700, ptr %5, align 4
  br label %209

209:                                              ; preds = %208, %201, %194, %187, %173, %166, %159, %145, %138, %131, %117, %110, %103, %89, %82, %75, %61, %54, %47
  %210 = load i32, ptr %5, align 4
  ret i32 %210
}